target datalayout = "e-m:e-p270:32:32-p271:32:32-p272:64:64-i64:64-i128:128-f80:128-n8:16:32:64-S128"
target triple = "x86_64-pc-linux-gnu"

%struct.fsck_options = type { ptr, ptr, i32, i32, ptr, %struct.oidset, %struct.oidset, %struct.oidset, %struct.oidset, %struct.oidset, ptr }
%struct.oidset = type { %struct.kh_oid_set }
%struct.kh_oid_set = type { i32, i32, i32, i32, ptr, ptr, ptr }
%struct.kh_oid_map = type { i32, i32, i32, i32, ptr, ptr, ptr }

; Function Attrs: inlinehint nounwind uwtable
define internal void @kh_clear_oid_map(ptr noundef %0) #2 {
  %2 = alloca ptr, align 8
  store ptr %0, ptr %2, align 8, !tbaa !74
  %3 = load ptr, ptr %2, align 8, !tbaa !74
  %4 = icmp ne ptr %3, null
  br i1 %4, label %5, label %32

5:                                                ; preds = %1
  %6 = load ptr, ptr %2, align 8, !tbaa !74
  %7 = getelementptr inbounds nuw %struct.kh_oid_map, ptr %6, i32 0, i32 4
  %8 = load ptr, ptr %7, align 8, !tbaa !75
  %9 = icmp ne ptr %8, null
  br i1 %9, label %10, label %32

10:                                               ; preds = %5
  %11 = load ptr, ptr %2, align 8, !tbaa !74
  %12 = getelementptr inbounds nuw %struct.kh_oid_map, ptr %11, i32 0, i32 4
  %13 = load ptr, ptr %12, align 8, !tbaa !75
  %14 = load ptr, ptr %2, align 8, !tbaa !74
  %15 = getelementptr inbounds nuw %struct.kh_oid_map, ptr %14, i32 0, i32 0
  %16 = load i32, ptr %15, align 8, !tbaa !71
  %17 = icmp ult i32 %16, 16
  br i1 %17, label %18, label %19

18:                                               ; preds = %10
  br label %24

19:                                               ; preds = %10
  %20 = load ptr, ptr %2, align 8, !tbaa !74
  %21 = getelementptr inbounds nuw %struct.kh_oid_map, ptr %20, i32 0, i32 0
  %22 = load i32, ptr %21, align 8, !tbaa !71
  %23 = lshr i32 %22, 4
  br label %24

24:                                               ; preds = %19, %18
  %25 = phi i32 [ 1, %18 ], [ %23, %19 ]
  %26 = zext i32 %25 to i64
  %27 = mul i64 %26, 4
  call void @llvm.memset.p0.i64(ptr align 4 %13, i8 -86, i64 %27, i1 false)
  %28 = load ptr, ptr %2, align 8, !tbaa !74
  %29 = getelementptr inbounds nuw %struct.kh_oid_map, ptr %28, i32 0, i32 2
  store i32 0, ptr %29, align 8, !tbaa !79
  %30 = load ptr, ptr %2, align 8, !tbaa !74
  %31 = getelementptr inbounds nuw %struct.kh_oid_map, ptr %30, i32 0, i32 1
  store i32 0, ptr %31, align 4, !tbaa !81
  br label %32

32:                                               ; preds = %24, %5, %1
  ret void
}

; Function Attrs: nounwind uwtable
define dso_local void @fsck_options_clear(ptr noundef %0) #0 {
  %2 = alloca ptr, align 8
  store ptr %0, ptr %2, align 8, !tbaa !24
  %3 = load ptr, ptr %2, align 8, !tbaa !24
  %4 = getelementptr inbounds nuw %struct.fsck_options, ptr %3, i32 0, i32 4
  %5 = load ptr, ptr %4, align 8, !tbaa !26
  call void @free(ptr noundef %5) #11
  %6 = load ptr, ptr %2, align 8, !tbaa !24
  %7 = getelementptr inbounds nuw %struct.fsck_options, ptr %6, i32 0, i32 5
  call void @oidset_clear(ptr noundef %7)
  %8 = load ptr, ptr %2, align 8, !tbaa !24
  %9 = getelementptr inbounds nuw %struct.fsck_options, ptr %8, i32 0, i32 6
  call void @oidset_clear(ptr noundef %9)
  %10 = load ptr, ptr %2, align 8, !tbaa !24
  %11 = getelementptr inbounds nuw %struct.fsck_options, ptr %10, i32 0, i32 7
  call void @oidset_clear(ptr noundef %11)
  %12 = load ptr, ptr %2, align 8, !tbaa !24
  %13 = getelementptr inbounds nuw %struct.fsck_options, ptr %12, i32 0, i32 8
  call void @oidset_clear(ptr noundef %13)
  %14 = load ptr, ptr %2, align 8, !tbaa !24
  %15 = getelementptr inbounds nuw %struct.fsck_options, ptr %14, i32 0, i32 9
  call void @oidset_clear(ptr noundef %15)
  %16 = load ptr, ptr %2, align 8, !tbaa !24
  %17 = getelementptr inbounds nuw %struct.fsck_options, ptr %16, i32 0, i32 10
  %18 = load ptr, ptr %17, align 8, !tbaa !68
  call void @kh_clear_oid_map(ptr noundef %18)
  ret void
}