; Function Attrs: nounwind uwtable
define dso_local void @fsck_options_clear(ptr noundef %0) local_unnamed_addr #0 {
  %2 = getelementptr inbounds nuw i8, ptr %0, i64 24
  %3 = load ptr, ptr %2, align 8, !tbaa !20
  tail call void @free(ptr noundef %3) #16
  %4 = getelementptr inbounds nuw i8, ptr %0, i64 32
  tail call void @oidset_clear(ptr noundef nonnull %4) #16
  %5 = getelementptr inbounds nuw i8, ptr %0, i64 72
  tail call void @oidset_clear(ptr noundef nonnull %5) #16
  %6 = getelementptr inbounds nuw i8, ptr %0, i64 112
  tail call void @oidset_clear(ptr noundef nonnull %6) #16
  %7 = getelementptr inbounds nuw i8, ptr %0, i64 152
  tail call void @oidset_clear(ptr noundef nonnull %7) #16
  %8 = getelementptr inbounds nuw i8, ptr %0, i64 192
  tail call void @oidset_clear(ptr noundef nonnull %8) #16
  %9 = getelementptr inbounds nuw i8, ptr %0, i64 232
  %10 = load ptr, ptr %9, align 8, !tbaa !57
  %.not.i = icmp eq ptr %10, null
  br i1 %.not.i, label %kh_clear_oid_map.exit, label %11

11:                                               ; preds = %1
  %12 = getelementptr inbounds nuw i8, ptr %10, i64 16
  %13 = load ptr, ptr %12, align 8, !tbaa !60
  %.not9.i = icmp eq ptr %13, null
  br i1 %.not9.i, label %kh_clear_oid_map.exit, label %14

14:                                               ; preds = %11
  %15 = load i32, ptr %10, align 8, !tbaa !58
  %16 = icmp ult i32 %15, 16
  %17 = lshr i32 %15, 2
  %18 = and i32 %17, 1073741820
  %narrow.i = select i1 %16, i32 4, i32 %18
  %19 = zext nneg i32 %narrow.i to i64
  tail call void @llvm.memset.p0.i64(ptr nonnull align 4 %13, i8 -86, i64 %19, i1 false)
  %20 = getelementptr inbounds nuw i8, ptr %10, i64 8
  store i32 0, ptr %20, align 8, !tbaa !66
  %21 = getelementptr inbounds nuw i8, ptr %10, i64 4
  store i32 0, ptr %21, align 4, !tbaa !68
  br label %kh_clear_oid_map.exit

kh_clear_oid_map.exit:                            ; preds = %1, %11, %14
  ret void
}